target datalayout = "e-m:e-p270:32:32-p271:32:32-p272:64:64-i64:64-i128:128-f80:128-n8:16:32:64-S128"
target triple = "x86_64-pc-linux-gnu"

@cap_tree = internal global ptr null, align 8
@.str.689 = private unnamed_addr constant [11 x i8] c" (%d bits)\00", align 1

; Function Attrs: null_pointer_is_valid sspstrong uwtable
define internal i32 @dissect_cms_RC2ParameterVersion(i1 noundef zeroext %0, ptr noundef %1, i32 noundef %2, ptr noundef %3, ptr noundef %4, i32 noundef %5) #0 {
  %7 = alloca i8, align 1
  %8 = alloca ptr, align 8
  %9 = alloca i32, align 4
  %10 = alloca ptr, align 8
  %11 = alloca ptr, align 8
  %12 = alloca i32, align 4
  %13 = alloca i32, align 4
  %14 = zext i1 %0 to i8
  store i8 %14, ptr %7, align 1
  store ptr %1, ptr %8, align 8
  store i32 %2, ptr %9, align 4
  store ptr %3, ptr %10, align 8
  store ptr %4, ptr %11, align 8
  store i32 %5, ptr %12, align 4
  call void @llvm.lifetime.start.p0(i64 4, ptr %13) #5
  store i32 0, ptr %13, align 4
  %15 = load i8, ptr %7, align 1, !range !6, !noundef !7
  %16 = trunc i8 %15 to i1
  %17 = load ptr, ptr %10, align 8
  %18 = load ptr, ptr %11, align 8
  %19 = load ptr, ptr %8, align 8
  %20 = load i32, ptr %9, align 4
  %21 = load i32, ptr %12, align 4
  %22 = call i32 @dissect_ber_integer(i1 noundef zeroext %16, ptr noundef %17, ptr noundef %18, ptr noundef %19, i32 noundef %20, i32 noundef %21, ptr noundef %13)
  store i32 %22, ptr %9, align 4
  %23 = load ptr, ptr @cap_tree, align 8
  %24 = icmp ne ptr %23, null
  br i1 %24, label %25, label %28

25:                                               ; preds = %6
  %26 = load ptr, ptr @cap_tree, align 8
  %27 = load i32, ptr %13, align 4
  call void (ptr, ptr, ...) @proto_item_append_text(ptr noundef %26, ptr noundef @.str.689, i32 noundef %27)
  br label %28

28:                                               ; preds = %25, %6
  %29 = load i32, ptr %9, align 4
  call void @llvm.lifetime.end.p0(i64 4, ptr %13) #5
  ret i32 %29
}

; Function Attrs: null_pointer_is_valid sspstrong uwtable
define internal i32 @dissect_cms_RC2WrapParameter(i1 noundef zeroext %0, ptr noundef %1, i32 noundef %2, ptr noundef %3, ptr noundef %4, i32 noundef %5) #0 {
  %7 = alloca i8, align 1
  %8 = alloca ptr, align 8
  %9 = alloca i32, align 4
  %10 = alloca ptr, align 8
  %11 = alloca ptr, align 8
  %12 = alloca i32, align 4
  %13 = zext i1 %0 to i8
  store i8 %13, ptr %7, align 1
  store ptr %1, ptr %8, align 8
  store i32 %2, ptr %9, align 4
  store ptr %3, ptr %10, align 8
  store ptr %4, ptr %11, align 8
  store i32 %5, ptr %12, align 4
  %14 = load i8, ptr %7, align 1, !range !6, !noundef !7
  %15 = trunc i8 %14 to i1
  %16 = load ptr, ptr %8, align 8
  %17 = load i32, ptr %9, align 4
  %18 = load ptr, ptr %10, align 8
  %19 = load ptr, ptr %11, align 8
  %20 = load i32, ptr %12, align 4
  %21 = call i32 @dissect_cms_RC2ParameterVersion(i1 noundef zeroext %15, ptr noundef %16, i32 noundef %17, ptr noundef %18, ptr noundef %19, i32 noundef %20)
  store i32 %21, ptr %9, align 4
  %22 = load i32, ptr %9, align 4
  ret i32 %22
}