; Function Attrs: null_pointer_is_valid sspstrong uwtable
define internal i32 @dissect_cms_RC2WrapParameter(i1 noundef zeroext %0, ptr noundef %1, i32 noundef %2, ptr noundef %3, ptr noundef %4, i32 noundef %5) #0 {
  %7 = alloca i32, align 4
  call void @llvm.lifetime.start.p0(i64 4, ptr nonnull %7) #6
  store i32 0, ptr %7, align 4
  %8 = call i32 @dissect_ber_integer(i1 noundef zeroext %0, ptr noundef %3, ptr noundef %4, ptr noundef %1, i32 noundef %2, i32 noundef %5, ptr noundef nonnull %7)
  %9 = load ptr, ptr @cap_tree, align 8
  %.not.i = icmp eq ptr %9, null
  br i1 %.not.i, label %dissect_cms_RC2ParameterVersion.exit, label %10

10:                                               ; preds = %6
  %11 = load i32, ptr %7, align 4
  call void (ptr, ptr, ...) @proto_item_append_text(ptr noundef nonnull %9, ptr noundef nonnull @.str.689, i32 noundef %11)
  br label %dissect_cms_RC2ParameterVersion.exit

dissect_cms_RC2ParameterVersion.exit:             ; preds = %6, %10
  call void @llvm.lifetime.end.p0(i64 4, ptr nonnull %7) #6
  ret i32 %8
}